target datalayout = "e-m:e-p270:32:32-p271:32:32-p272:64:64-i64:64-i128:128-f80:128-n8:16:32:64-S128"
target triple = "x86_64-pc-linux-gnu"

%"struct.__cxxabiv1::__cxa_exception" = type { ptr, ptr, ptr, ptr, ptr, i32, i32, ptr, ptr, i64, ptr, %struct._Unwind_Exception }
%struct._Unwind_Exception = type { i64, ptr, i64, i64 }
%"class.std::__exception_ptr::exception_ptr" = type { ptr }

; Function Attrs: mustprogress nounwind uwtable
define noundef ptr @_ZN5folly6detail23exception_ptr_get_type_ERKNSt15__exception_ptr13exception_ptrE(ptr noundef nonnull align 8 dereferenceable(8) %0) #0 {
  %2 = alloca ptr, align 8
  %3 = alloca ptr, align 8
  %4 = alloca ptr, align 8
  %5 = alloca ptr, align 8
  store ptr %0, ptr %3, align 8, !tbaa !28
  %6 = load ptr, ptr %3, align 8, !tbaa !28
  %7 = call noundef zeroext i1 @_ZNKSt15__exception_ptr13exception_ptrcvbEv(ptr noundef nonnull align 8 dereferenceable(8) %6) #20
  br i1 %7, label %9, label %8

8:                                                ; preds = %1
  store ptr null, ptr %2, align 8
  br label %17

9:                                                ; preds = %1
  call void @llvm.lifetime.start.p0(i64 8, ptr %4) #20
  %10 = load ptr, ptr %3, align 8, !tbaa !28
  %11 = load ptr, ptr %10, align 8, !tbaa !30
  store ptr %11, ptr %4, align 8, !tbaa !30
  call void @llvm.lifetime.start.p0(i64 8, ptr %5) #20
  %12 = load ptr, ptr %4, align 8, !tbaa !30
  %13 = getelementptr inbounds %"struct.__cxxabiv1::__cxa_exception", ptr %12, i64 -1
  store ptr %13, ptr %5, align 8, !tbaa !31
  %14 = load ptr, ptr %5, align 8, !tbaa !31
  %15 = getelementptr inbounds nuw %"struct.__cxxabiv1::__cxa_exception", ptr %14, i32 0, i32 0
  %16 = load ptr, ptr %15, align 16, !tbaa !33
  store ptr %16, ptr %2, align 8
  call void @llvm.lifetime.end.p0(i64 8, ptr %5) #20
  call void @llvm.lifetime.end.p0(i64 8, ptr %4) #20
  br label %17

17:                                               ; preds = %9, %8
  %18 = load ptr, ptr %2, align 8
  ret ptr %18
}

; Function Attrs: mustprogress nounwind uwtable
define linkonce_odr noundef zeroext i1 @_ZNKSt15__exception_ptr13exception_ptrcvbEv(ptr noundef nonnull align 8 dereferenceable(8) %0) #0 comdat align 2 {
  %2 = alloca ptr, align 8
  store ptr %0, ptr %2, align 8, !tbaa !28
  %3 = load ptr, ptr %2, align 8
  %4 = getelementptr inbounds nuw %"class.std::__exception_ptr::exception_ptr", ptr %3, i32 0, i32 0
  %5 = load ptr, ptr %4, align 8, !tbaa !39
  %6 = icmp ne ptr %5, null
  ret i1 %6
}

; Function Attrs: mustprogress nounwind uwtable
define noundef ptr @_ZN5folly6detail25exception_ptr_get_object_ERKNSt15__exception_ptr13exception_ptrEPKSt9type_info(ptr noundef nonnull align 8 dereferenceable(8) %0, ptr noundef %1) #0 personality ptr @__gxx_personality_v0 {
  %3 = alloca ptr, align 8
  %4 = alloca ptr, align 8
  %5 = alloca ptr, align 8
  %6 = alloca ptr, align 8
  %7 = alloca ptr, align 8
  store ptr %0, ptr %4, align 8, !tbaa !28
  store ptr %1, ptr %5, align 8, !tbaa !41
  %8 = load ptr, ptr %4, align 8, !tbaa !28
  %9 = call noundef zeroext i1 @_ZNKSt15__exception_ptr13exception_ptrcvbEv(ptr noundef nonnull align 8 dereferenceable(8) %8) #20
  br i1 %9, label %11, label %10

10:                                               ; preds = %2
  store ptr null, ptr %3, align 8
  br label %31

11:                                               ; preds = %2
  call void @llvm.lifetime.start.p0(i64 8, ptr %6) #20
  %12 = load ptr, ptr %4, align 8, !tbaa !28
  %13 = load ptr, ptr %12, align 8, !tbaa !30
  store ptr %13, ptr %6, align 8, !tbaa !30
  call void @llvm.lifetime.start.p0(i64 8, ptr %7) #20
  %14 = load ptr, ptr %4, align 8, !tbaa !28
  %15 = call noundef ptr @_ZN5folly6detail23exception_ptr_get_type_ERKNSt15__exception_ptr13exception_ptrE(ptr noundef nonnull align 8 dereferenceable(8) %14) #20
  store ptr %15, ptr %7, align 8, !tbaa !41
  %16 = load ptr, ptr %5, align 8, !tbaa !41
  %17 = icmp ne ptr %16, null
  br i1 %17, label %18, label %26

18:                                               ; preds = %11
  %19 = load ptr, ptr %5, align 8, !tbaa !41
  %20 = load ptr, ptr %7, align 8, !tbaa !41
  %21 = load ptr, ptr %19, align 8, !tbaa !26
  %22 = getelementptr inbounds ptr, ptr %21, i64 4
  %23 = load ptr, ptr %22, align 8
  %24 = invoke noundef zeroext i1 %23(ptr noundef nonnull align 8 dereferenceable(16) %19, ptr noundef %20, ptr noundef %6, i32 noundef 1)
          to label %25 unwind label %33

25:                                               ; preds = %18
  br i1 %24, label %26, label %28

26:                                               ; preds = %25, %11
  %27 = load ptr, ptr %6, align 8, !tbaa !30
  br label %29

28:                                               ; preds = %25
  br label %29

29:                                               ; preds = %28, %26
  %30 = phi ptr [ %27, %26 ], [ null, %28 ]
  store ptr %30, ptr %3, align 8
  call void @llvm.lifetime.end.p0(i64 8, ptr %7) #20
  call void @llvm.lifetime.end.p0(i64 8, ptr %6) #20
  br label %31

31:                                               ; preds = %29, %10
  %32 = load ptr, ptr %3, align 8
  ret ptr %32

33:                                               ; preds = %18
  %34 = landingpad { ptr, i32 }
          catch ptr null
  %35 = extractvalue { ptr, i32 } %34, 0
  call void @__clang_call_terminate(ptr %35) #22
  unreachable
}