; Function Attrs: mustprogress nounwind uwtable
define noundef ptr @_ZN5folly6detail25exception_ptr_get_object_ERKNSt15__exception_ptr13exception_ptrEPKSt9type_info(ptr noundef nonnull readonly align 8 captures(none) dereferenceable(8) %0, ptr noundef %1) local_unnamed_addr #8 personality ptr @__gxx_personality_v0 {
  %3 = alloca ptr, align 8
  %4 = load ptr, ptr %0, align 8, !tbaa !10
  %.not8 = icmp eq ptr %4, null
  br i1 %.not8, label %14, label %_ZN5folly6detail23exception_ptr_get_type_ERKNSt15__exception_ptr13exception_ptrE.exit

_ZN5folly6detail23exception_ptr_get_type_ERKNSt15__exception_ptr13exception_ptrE.exit: ; preds = %2
  call void @llvm.lifetime.start.p0(i64 8, ptr nonnull %3) #22
  store ptr %4, ptr %3, align 8, !tbaa !22
  %.not = icmp eq ptr %1, null
  br i1 %.not, label %._crit_edge, label %5

5:                                                ; preds = %_ZN5folly6detail23exception_ptr_get_type_ERKNSt15__exception_ptr13exception_ptrE.exit
  %6 = getelementptr inbounds i8, ptr %4, i64 -112
  %7 = load ptr, ptr %6, align 16, !tbaa !14
  %8 = load ptr, ptr %1, align 8, !tbaa !7
  %9 = getelementptr inbounds nuw i8, ptr %8, i64 32
  %10 = load ptr, ptr %9, align 8
  %11 = invoke noundef zeroext i1 %10(ptr noundef nonnull align 8 dereferenceable(16) %1, ptr noundef %7, ptr noundef nonnull %3, i32 noundef 1)
          to label %12 unwind label %15

12:                                               ; preds = %5
  %.pre = load ptr, ptr %3, align 8
  %spec.select = select i1 %11, ptr %.pre, ptr null
  br label %._crit_edge

._crit_edge:                                      ; preds = %12, %_ZN5folly6detail23exception_ptr_get_type_ERKNSt15__exception_ptr13exception_ptrE.exit
  %13 = phi ptr [ %4, %_ZN5folly6detail23exception_ptr_get_type_ERKNSt15__exception_ptr13exception_ptrE.exit ], [ %spec.select, %12 ]
  call void @llvm.lifetime.end.p0(i64 8, ptr nonnull %3) #22
  br label %14

14:                                               ; preds = %2, %._crit_edge
  %.0 = phi ptr [ %13, %._crit_edge ], [ null, %2 ]
  ret ptr %.0

15:                                               ; preds = %5
  %16 = landingpad { ptr, i32 }
          catch ptr null
  %17 = extractvalue { ptr, i32 } %16, 0
  call void @__clang_call_terminate(ptr %17) #23
  unreachable
}